target datalayout = "e-m:e-p270:32:32-p271:32:32-p272:64:64-i64:64-i128:128-f80:128-n8:16:32:64-S128"
target triple = "x86_64-pc-linux-gnu"

%struct._ir_insn = type { %struct.anon, %union.anon.6 }
%struct.anon = type { %union.anon.0, %union.anon.5 }
%union.anon.0 = type { i32 }
%union.anon.5 = type { i32 }
%union.anon.6 = type { %union._ir_val }
%union._ir_val = type { double }
%struct._ir_ctx = type { ptr, i32, i32, i32, i32, i32, i32, i32, i32, i32, i32, %struct._ir_insn, ptr, ptr, ptr, i32, i32, i32, ptr, ptr, ptr, ptr, ptr, i32, i32, i64, i32, i32, i32, i64, i32, i32, i32, i32, ptr, ptr, ptr, ptr, ptr, ptr, %union.anon.14, ptr, i32, i32, i32, i64, i32, i32, i32, ptr, ptr, ptr, ptr, %struct._ir_strtab, [61 x i32], [14 x i32] }
%union.anon.14 = type { ptr }
%struct._ir_strtab = type { ptr, i32, i32, i32, i32, ptr, i32, i32 }
%struct.anon.1 = type { %union.anon.2, %union.anon.4 }
%union.anon.2 = type { i16 }
%union.anon.4 = type { i16 }
%struct.anon.3 = type { i8, i8 }

@_ir_int_reg_params = internal constant [6 x i8] c"\07\06\02\01\08\09", align 1
@_ir_fp_reg_params = internal constant [8 x i8] c"\10\11\12\13\14\15\16\17", align 1

; Function Attrs: nounwind uwtable
define internal i32 @ir_get_args_regs(ptr noundef %0, ptr noundef %1, ptr noundef %2) #0 {
  %4 = alloca ptr, align 8
  %5 = alloca i32, align 4
  %6 = alloca ptr, align 8
  %7 = alloca ptr, align 8
  %8 = alloca ptr, align 8
  %9 = alloca ptr, align 8
  %10 = alloca i32, align 4
  %11 = alloca i32, align 4
  %12 = alloca i32, align 4
  %13 = alloca i32, align 4
  %14 = alloca i32, align 4
  %15 = alloca i32, align 4
  %16 = alloca i32, align 4
  %17 = alloca i32, align 4
  %18 = alloca ptr, align 8
  %19 = alloca ptr, align 8
  store ptr %0, ptr %7, align 8
  store ptr %1, ptr %8, align 8
  store ptr %2, ptr %9, align 8
  store i32 0, ptr %13, align 4
  store i32 0, ptr %14, align 4
  store i32 0, ptr %15, align 4
  store i32 6, ptr %16, align 4
  store i32 8, ptr %17, align 4
  store ptr @_ir_int_reg_params, ptr %18, align 8
  store ptr @_ir_fp_reg_params, ptr %19, align 8
  %20 = load ptr, ptr %8, align 8
  %21 = getelementptr inbounds %struct._ir_insn, ptr %20, i32 0, i32 0
  %22 = getelementptr inbounds %struct.anon, ptr %21, i32 0, i32 0
  %23 = getelementptr inbounds %struct.anon.1, ptr %22, i32 0, i32 1
  %24 = load i16, ptr %23, align 2
  %25 = zext i16 %24 to i32
  store i32 %25, ptr %11, align 4
  %26 = load i32, ptr %11, align 4
  %27 = icmp slt i32 %26, 16
  br i1 %27, label %28, label %30

28:                                               ; preds = %3
  %29 = load i32, ptr %11, align 4
  br label %31

30:                                               ; preds = %3
  br label %31

31:                                               ; preds = %30, %28
  %32 = phi i32 [ %29, %28 ], [ 16, %30 ]
  store i32 %32, ptr %11, align 4
  store i32 3, ptr %10, align 4
  br label %33

33:                                               ; preds = %108, %31
  %34 = load i32, ptr %10, align 4
  %35 = load i32, ptr %11, align 4
  %36 = icmp sle i32 %34, %35
  br i1 %36, label %37, label %111

37:                                               ; preds = %33
  %38 = load ptr, ptr %7, align 8
  %39 = getelementptr inbounds %struct._ir_ctx, ptr %38, i32 0, i32 0
  %40 = load ptr, ptr %39, align 8
  %41 = load ptr, ptr %8, align 8
  %42 = load i32, ptr %10, align 4
  store ptr %41, ptr %4, align 8
  store i32 %42, ptr %5, align 4
  %43 = load ptr, ptr %4, align 8
  %44 = load i32, ptr %5, align 4
  %45 = sext i32 %44 to i64
  %46 = getelementptr inbounds i32, ptr %43, i64 %45
  store ptr %46, ptr %6, align 8
  %47 = load ptr, ptr %6, align 8
  %48 = load i32, ptr %47, align 4
  %49 = sext i32 %48 to i64
  %50 = getelementptr inbounds %struct._ir_insn, ptr %40, i64 %49
  %51 = getelementptr inbounds %struct._ir_insn, ptr %50, i32 0, i32 0
  %52 = getelementptr inbounds %struct.anon, ptr %51, i32 0, i32 0
  %53 = getelementptr inbounds %struct.anon.1, ptr %52, i32 0, i32 0
  %54 = getelementptr inbounds %struct.anon.3, ptr %53, i32 0, i32 1
  %55 = load i8, ptr %54, align 1
  %56 = zext i8 %55 to i32
  store i32 %56, ptr %12, align 4
  %57 = load i32, ptr %12, align 4
  %58 = icmp ult i32 %57, 12
  br i1 %58, label %59, label %83

59:                                               ; preds = %37
  %60 = load i32, ptr %13, align 4
  %61 = load i32, ptr %16, align 4
  %62 = icmp slt i32 %60, %61
  br i1 %62, label %63, label %75

63:                                               ; preds = %59
  %64 = load ptr, ptr %18, align 8
  %65 = load i32, ptr %13, align 4
  %66 = sext i32 %65 to i64
  %67 = getelementptr inbounds i8, ptr %64, i64 %66
  %68 = load i8, ptr %67, align 1
  %69 = load ptr, ptr %9, align 8
  %70 = load i32, ptr %10, align 4
  %71 = sext i32 %70 to i64
  %72 = getelementptr inbounds i8, ptr %69, i64 %71
  store i8 %68, ptr %72, align 1
  %73 = load i32, ptr %10, align 4
  %74 = add nsw i32 %73, 1
  store i32 %74, ptr %15, align 4
  br label %80

75:                                               ; preds = %59
  %76 = load ptr, ptr %9, align 8
  %77 = load i32, ptr %10, align 4
  %78 = sext i32 %77 to i64
  %79 = getelementptr inbounds i8, ptr %76, i64 %78
  store i8 -1, ptr %79, align 1
  br label %80

80:                                               ; preds = %75, %63
  %81 = load i32, ptr %13, align 4
  %82 = add nsw i32 %81, 1
  store i32 %82, ptr %13, align 4
  br label %107

83:                                               ; preds = %37
  %84 = load i32, ptr %14, align 4
  %85 = load i32, ptr %17, align 4
  %86 = icmp slt i32 %84, %85
  br i1 %86, label %87, label %99

87:                                               ; preds = %83
  %88 = load ptr, ptr %19, align 8
  %89 = load i32, ptr %14, align 4
  %90 = sext i32 %89 to i64
  %91 = getelementptr inbounds i8, ptr %88, i64 %90
  %92 = load i8, ptr %91, align 1
  %93 = load ptr, ptr %9, align 8
  %94 = load i32, ptr %10, align 4
  %95 = sext i32 %94 to i64
  %96 = getelementptr inbounds i8, ptr %93, i64 %95
  store i8 %92, ptr %96, align 1
  %97 = load i32, ptr %10, align 4
  %98 = add nsw i32 %97, 1
  store i32 %98, ptr %15, align 4
  br label %104

99:                                               ; preds = %83
  %100 = load ptr, ptr %9, align 8
  %101 = load i32, ptr %10, align 4
  %102 = sext i32 %101 to i64
  %103 = getelementptr inbounds i8, ptr %100, i64 %102
  store i8 -1, ptr %103, align 1
  br label %104

104:                                              ; preds = %99, %87
  %105 = load i32, ptr %14, align 4
  %106 = add nsw i32 %105, 1
  store i32 %106, ptr %14, align 4
  br label %107

107:                                              ; preds = %104, %80
  br label %108

108:                                              ; preds = %107
  %109 = load i32, ptr %10, align 4
  %110 = add nsw i32 %109, 1
  store i32 %110, ptr %10, align 4
  br label %33

111:                                              ; preds = %33
  %112 = load i32, ptr %15, align 4
  ret i32 %112
}