; Function Attrs: nofree norecurse nosync nounwind memory(read, argmem: readwrite, inaccessiblemem: none) uwtable
define internal fastcc i32 @ir_get_args_regs(ptr nocapture noundef readonly %0, ptr nocapture noundef readonly %1, ptr nocapture noundef writeonly %2) unnamed_addr #10 {
  %4 = getelementptr inbounds i8, ptr %1, i64 2
  %5 = load i16, ptr %4, align 2
  %.not38 = icmp ult i16 %5, 3
  br i1 %.not38, label %._crit_edge, label %.lr.ph.preheader

.lr.ph.preheader:                                 ; preds = %3
  %6 = tail call i16 @llvm.umin.i16(i16 %5, i16 16)
  %narrow = add nuw nsw i16 %6, 1
  %wide.trip.count = zext nneg i16 %narrow to i64
  br label %.lr.ph

.lr.ph:                                           ; preds = %.lr.ph.preheader, %37
  %indvars.iv = phi i64 [ 3, %.lr.ph.preheader ], [ %indvars.iv.next, %37 ]
  %.03341 = phi i32 [ 0, %.lr.ph.preheader ], [ %.1, %37 ]
  %.03440 = phi i32 [ 0, %.lr.ph.preheader ], [ %.135, %37 ]
  %.03639 = phi i32 [ 0, %.lr.ph.preheader ], [ %.3, %37 ]
  %7 = load ptr, ptr %0, align 8
  %8 = getelementptr inbounds i32, ptr %1, i64 %indvars.iv
  %9 = load i32, ptr %8, align 4
  %10 = sext i32 %9 to i64
  %11 = getelementptr inbounds %struct._ir_insn, ptr %7, i64 %10
  %12 = getelementptr inbounds i8, ptr %11, i64 1
  %13 = load i8, ptr %12, align 1
  %14 = icmp ult i8 %13, 12
  br i1 %14, label %15, label %26

15:                                               ; preds = %.lr.ph
  %16 = icmp slt i32 %.03341, 6
  br i1 %16, label %17, label %23

17:                                               ; preds = %15
  %18 = sext i32 %.03341 to i64
  %19 = getelementptr inbounds i8, ptr @_ir_int_reg_params, i64 %18
  %20 = load i8, ptr %19, align 1
  %21 = trunc i64 %indvars.iv to i32
  %22 = add i32 %21, 1
  br label %23

23:                                               ; preds = %15, %17
  %.sink = phi i8 [ %20, %17 ], [ -1, %15 ]
  %.137 = phi i32 [ %22, %17 ], [ %.03639, %15 ]
  %24 = getelementptr inbounds i8, ptr %2, i64 %indvars.iv
  store i8 %.sink, ptr %24, align 1
  %25 = add nsw i32 %.03341, 1
  br label %37

26:                                               ; preds = %.lr.ph
  %27 = icmp slt i32 %.03440, 8
  br i1 %27, label %28, label %34

28:                                               ; preds = %26
  %29 = sext i32 %.03440 to i64
  %30 = getelementptr inbounds i8, ptr @_ir_fp_reg_params, i64 %29
  %31 = load i8, ptr %30, align 1
  %32 = trunc i64 %indvars.iv to i32
  %33 = add i32 %32, 1
  br label %34

34:                                               ; preds = %26, %28
  %.sink45 = phi i8 [ %31, %28 ], [ -1, %26 ]
  %.2 = phi i32 [ %33, %28 ], [ %.03639, %26 ]
  %35 = getelementptr inbounds i8, ptr %2, i64 %indvars.iv
  store i8 %.sink45, ptr %35, align 1
  %36 = add nsw i32 %.03440, 1
  br label %37

37:                                               ; preds = %23, %34
  %.3 = phi i32 [ %.137, %23 ], [ %.2, %34 ]
  %.135 = phi i32 [ %.03440, %23 ], [ %36, %34 ]
  %.1 = phi i32 [ %25, %23 ], [ %.03341, %34 ]
  %indvars.iv.next = add nuw nsw i64 %indvars.iv, 1
  %exitcond.not = icmp eq i64 %indvars.iv.next, %wide.trip.count
  br i1 %exitcond.not, label %._crit_edge, label %.lr.ph

._crit_edge:                                      ; preds = %37, %3
  %.036.lcssa = phi i32 [ 0, %3 ], [ %.3, %37 ]
  ret i32 %.036.lcssa
}